; ModuleID = '40/359.c'
source_filename = "40/359.c"
target datalayout = "e-m:e-p270:32:32-p271:32:32-p272:64:64-i64:64-f80:128-n8:16:32:64-S128"
target triple = "x86_64-pc-linux-gnu"

@.str = private unnamed_addr constant [16 x i8] c"%lf%lf%lf%lf%lf\00", align 1
@.str.1 = private unnamed_addr constant [6 x i8] c"%.4f\0A\00", align 1
@.str.2 = private unnamed_addr constant [15 x i8] c"Invalid input\0A\00", align 1

; Function Attrs: noinline nounwind uwtable
define dso_local i32 @main() #0 {
  %1 = alloca i32, align 4
  %2 = alloca double, align 8
  %3 = alloca double, align 8
  %4 = alloca double, align 8
  %5 = alloca double, align 8
  %6 = alloca double, align 8
  %7 = alloca double, align 8
  %8 = alloca double, align 8
  %9 = alloca double, align 8
  store i32 0, i32* %1, align 4
  %10 = call i32 (i8*, ...) @__isoc99_scanf(i8* getelementptr inbounds ([16 x i8], [16 x i8]* @.str, i64 0, i64 0), double* %2, double* %3, double* %4, double* %5, double* %6)
  %11 = load double, double* %6, align 8
  %12 = fmul double 0.000000e+00, %11
  %13 = fdiv double %12, 2.000000e+00
  store double %13, double* %7, align 8
  %14 = load double, double* %2, align 8
  %15 = load double, double* %3, align 8
  %16 = fadd double %14, %15
  %17 = load double, double* %4, align 8
  %18 = fadd double %16, %17
  %19 = load double, double* %5, align 8
  %20 = fadd double %18, %19
  %21 = fmul double 1.000000e+00, %20
  %22 = fdiv double %21, 2.000000e+00
  store double %22, double* %9, align 8
  %23 = load double, double* %9, align 8
  %24 = load double, double* %2, align 8
  %25 = fsub double %23, %24
  %26 = load double, double* %9, align 8
  %27 = load double, double* %3, align 8
  %28 = fsub double %26, %27
  %29 = fmul double %25, %28
  %30 = load double, double* %9, align 8
  %31 = load double, double* %4, align 8
  %32 = fsub double %30, %31
  %33 = fmul double %29, %32
  %34 = load double, double* %9, align 8
  %35 = load double, double* %5, align 8
  %36 = fsub double %34, %35
  %37 = fmul double %33, %36
  %38 = load double, double* %2, align 8
  %39 = load double, double* %3, align 8
  %40 = fmul double %38, %39
  %41 = load double, double* %4, align 8
  %42 = fmul double %40, %41
  %43 = load double, double* %5, align 8
  %44 = fmul double %42, %43
  %45 = load double, double* %7, align 8
  %46 = call double @cos(double %45) #3
  %47 = fmul double %44, %46
  %48 = load double, double* %7, align 8
  %49 = call double @cos(double %48) #3
  %50 = fmul double %47, %49
  %51 = fsub double %37, %50
  %52 = call double @sqrt(double %51) #3
  store double %52, double* %8, align 8
  %53 = load double, double* %9, align 8
  %54 = load double, double* %2, align 8
  %55 = fsub double %53, %54
  %56 = load double, double* %9, align 8
  %57 = load double, double* %3, align 8
  %58 = fsub double %56, %57
  %59 = fmul double %55, %58
  %60 = load double, double* %9, align 8
  %61 = load double, double* %4, align 8
  %62 = fsub double %60, %61
  %63 = fmul double %59, %62
  %64 = load double, double* %9, align 8
  %65 = load double, double* %5, align 8
  %66 = fsub double %64, %65
  %67 = fmul double %63, %66
  %68 = load double, double* %2, align 8
  %69 = load double, double* %3, align 8
  %70 = fmul double %68, %69
  %71 = load double, double* %4, align 8
  %72 = fmul double %70, %71
  %73 = load double, double* %5, align 8
  %74 = fmul double %72, %73
  %75 = load double, double* %7, align 8
  %76 = call double @cos(double %75) #3
  %77 = fmul double %74, %76
  %78 = load double, double* %7, align 8
  %79 = call double @cos(double %78) #3
  %80 = fmul double %77, %79
  %81 = fsub double %67, %80
  %82 = fcmp oge double %81, 0.000000e+00
  br i1 %82, label %83, label %86

83:                                               ; preds = %0
  %84 = load double, double* %8, align 8
  %85 = call i32 (i8*, ...) @printf(i8* getelementptr inbounds ([6 x i8], [6 x i8]* @.str.1, i64 0, i64 0), double %84)
  br label %89

86:                                               ; preds = %0
  %87 = load double, double* %8, align 8
  %88 = call i32 (i8*, ...) @printf(i8* getelementptr inbounds ([15 x i8], [15 x i8]* @.str.2, i64 0, i64 0), double %87)
  br label %89

89:                                               ; preds = %86, %83
  ret i32 0
}

declare dso_local i32 @__isoc99_scanf(i8*, ...) #1

; Function Attrs: nounwind
declare dso_local double @sqrt(double) #2

; Function Attrs: nounwind
declare dso_local double @cos(double) #2

declare dso_local i32 @printf(i8*, ...) #1


!llvm.module.flags = !{!0}
!llvm.ident = !{!1}

!0 = !{i32 1, !"wchar_size", i32 4}
!1 = !{!"clang version 10.0.0-4ubuntu1 "}
